; Function Attrs: mustprogress noreturn nounwind uwtable
define internal void @_ZN5boost6detailL46boost_execution_monitor_jumping_signal_handlerEiP9siginfo_tPv(i32 noundef %0, ptr noundef %1, ptr noundef %2) #9 {
  %4 = load ptr, ptr @_ZN5boost6detail14signal_handler16s_active_handlerE, align 8, !tbaa !32
  %5 = getelementptr inbounds nuw i8, ptr %4, i64 2712
  store ptr %1, ptr %5, align 8, !tbaa !3
  %6 = getelementptr inbounds nuw i8, ptr %4, i64 2720
  store ptr %2, ptr %6, align 8, !tbaa !33
  %7 = getelementptr inbounds nuw i8, ptr %4, i64 2512
  tail call void @siglongjmp(ptr noundef nonnull %7, i32 noundef %0) #44
  unreachable
}